; Function Attrs: mustprogress uwtable
define internal noundef float @_ZN12_GLOBAL__N_111restranglesIL18BondedKernelFlavor3EEEfiPKiPK9t_iparamsPA3_KfPA4_fPA3_fPK5t_pbcfPfN3gmx8ArrayRefIS7_EEP8t_fcdataP12t_disresdataP12t_oriresdataPi(i32 noundef %0, ptr nocapture noundef readonly %1, ptr noundef %2, ptr noundef %3, ptr nocapture noundef %4, ptr nocapture readnone %5, ptr noundef %6, float %7, ptr nocapture readnone %8, ptr nocapture noundef readnone byval(%"class.gmx::ArrayRef") align 8 %9, ptr nocapture readnone %10, ptr nocapture readnone %11, ptr nocapture readnone %12, ptr nocapture readnone %13) #4 {
  %15 = alloca float, align 4
  %16 = alloca [3 x float], align 4
  %17 = alloca [3 x float], align 4
  %18 = alloca [3 x float], align 4
  %19 = alloca double, align 8
  %20 = alloca double, align 8
  %21 = alloca double, align 8
  %22 = alloca [3 x float], align 8
  %23 = alloca [3 x float], align 8
  %24 = alloca [3 x float], align 8
  %25 = icmp sgt i32 %0, 0
  br i1 %25, label %.lr.ph, label %._crit_edge

.lr.ph:                                           ; preds = %14
  %.not.i = icmp eq ptr %6, null
  %26 = getelementptr inbounds i8, ptr %24, i64 8
  %27 = getelementptr inbounds i8, ptr %22, i64 8
  %28 = getelementptr inbounds i8, ptr %23, i64 8
  br label %32

.loopexit:                                        ; preds = %101
  %29 = fadd float %.065, %100
  %30 = trunc nuw i64 %indvars.iv.next72 to i32
  %31 = icmp slt i32 %30, %0
  br i1 %31, label %32, label %._crit_edge, !llvm.loop !172

32:                                               ; preds = %.lr.ph, %.loopexit
  %indvars.iv71 = phi i64 [ 0, %.lr.ph ], [ %indvars.iv.next72, %.loopexit ]
  %.065 = phi float [ 0.000000e+00, %.lr.ph ], [ %29, %.loopexit ]
  %33 = getelementptr inbounds i32, ptr %1, i64 %indvars.iv71
  %34 = load i32, ptr %33, align 4
  %35 = getelementptr i8, ptr %33, i64 4
  %36 = load i32, ptr %35, align 4
  %37 = or disjoint i64 %indvars.iv71, 3
  %38 = getelementptr i8, ptr %33, i64 8
  %39 = load i32, ptr %38, align 4
  %indvars.iv.next72 = add nuw nsw i64 %indvars.iv71, 4
  %40 = getelementptr inbounds i32, ptr %1, i64 %37
  %41 = load i32, ptr %40, align 4
  %42 = sext i32 %36 to i64
  %43 = getelementptr inbounds [3 x float], ptr %3, i64 %42
  %44 = sext i32 %39 to i64
  %45 = getelementptr inbounds [3 x float], ptr %3, i64 %44
  br i1 %.not.i, label %52, label %46

46:                                               ; preds = %32
  %47 = call noundef i32 @_Z11pbc_dx_aiucPK5t_pbcPKfS3_Pf(ptr noundef nonnull %6, ptr noundef %43, ptr noundef %45, ptr noundef nonnull %24)
  %48 = call noundef i32 @_Z11pbc_dx_aiucPK5t_pbcPKfS3_Pf(ptr noundef nonnull %6, ptr noundef %45, ptr noundef %43, ptr noundef nonnull %22)
  %49 = sext i32 %41 to i64
  %50 = getelementptr inbounds [3 x float], ptr %3, i64 %49
  %51 = call noundef i32 @_Z11pbc_dx_aiucPK5t_pbcPKfS3_Pf(ptr noundef nonnull %6, ptr noundef %50, ptr noundef %45, ptr noundef nonnull %23)
  br label %_ZN12_GLOBAL__N_112pbc_rvec_subEPK5t_pbcPKfS4_Pf.exit61

52:                                               ; preds = %32
  %53 = getelementptr inbounds i8, ptr %43, i64 8
  %54 = load float, ptr %53, align 4
  %55 = getelementptr inbounds i8, ptr %45, i64 8
  %56 = load float, ptr %55, align 4
  %57 = fsub float %54, %56
  %58 = load <2 x float>, ptr %43, align 4
  %59 = load <2 x float>, ptr %45, align 4
  %60 = fsub <2 x float> %58, %59
  store <2 x float> %60, ptr %24, align 8
  store float %57, ptr %26, align 8
  %61 = fsub float %56, %54
  %62 = fsub <2 x float> %59, %58
  store <2 x float> %62, ptr %22, align 8
  store float %61, ptr %27, align 8
  %63 = sext i32 %41 to i64
  %64 = getelementptr inbounds [3 x float], ptr %3, i64 %63
  %65 = getelementptr inbounds i8, ptr %64, i64 8
  %66 = load float, ptr %65, align 4
  %67 = fsub float %66, %56
  %68 = load <2 x float>, ptr %64, align 4
  %69 = fsub <2 x float> %68, %59
  store <2 x float> %69, ptr %23, align 8
  store float %67, ptr %28, align 8
  br label %_ZN12_GLOBAL__N_112pbc_rvec_subEPK5t_pbcPKfS4_Pf.exit61

_ZN12_GLOBAL__N_112pbc_rvec_subEPK5t_pbcPKfS4_Pf.exit61: ; preds = %46, %52
  %70 = phi i64 [ %49, %46 ], [ %63, %52 ]
  call void @_Z26compute_factors_restanglesiPK9t_iparamsPfS2_PdS3_S3_S2_(i32 noundef %34, ptr noundef %2, ptr noundef nonnull %22, ptr noundef nonnull %23, ptr noundef nonnull %19, ptr noundef nonnull %20, ptr noundef nonnull %21, ptr noundef nonnull %15)
  %71 = load double, ptr %19, align 8
  %72 = load double, ptr %20, align 8
  %73 = load double, ptr %21, align 8
  %74 = fadd double %73, 1.000000e+00
  %75 = fadd double %72, 1.000000e+00
  %76 = fneg double %75
  %77 = fneg double %73
  br label %78

78:                                               ; preds = %_ZN12_GLOBAL__N_112pbc_rvec_subEPK5t_pbcPKfS4_Pf.exit61, %78
  %indvars.iv = phi i64 [ 0, %_ZN12_GLOBAL__N_112pbc_rvec_subEPK5t_pbcPKfS4_Pf.exit61 ], [ %indvars.iv.next, %78 ]
  %79 = getelementptr inbounds [3 x float], ptr %22, i64 0, i64 %indvars.iv
  %80 = load float, ptr %79, align 4
  %81 = fpext float %80 to double
  %82 = getelementptr inbounds [3 x float], ptr %23, i64 0, i64 %indvars.iv
  %83 = load float, ptr %82, align 4
  %84 = fpext float %83 to double
  %85 = fneg double %84
  %86 = call double @llvm.fmuladd.f64(double %72, double %81, double %85)
  %87 = fmul double %71, %86
  %88 = fptrunc double %87 to float
  %89 = getelementptr inbounds [3 x float], ptr %16, i64 0, i64 %indvars.iv
  store float %88, ptr %89, align 4
  %90 = fmul double %76, %81
  %91 = call double @llvm.fmuladd.f64(double %74, double %84, double %90)
  %92 = fmul double %71, %91
  %93 = fptrunc double %92 to float
  %94 = getelementptr inbounds [3 x float], ptr %17, i64 0, i64 %indvars.iv
  store float %93, ptr %94, align 4
  %95 = call double @llvm.fmuladd.f64(double %77, double %84, double %81)
  %96 = fmul double %71, %95
  %97 = fptrunc double %96 to float
  %98 = getelementptr inbounds [3 x float], ptr %18, i64 0, i64 %indvars.iv
  store float %97, ptr %98, align 4
  %indvars.iv.next = add nuw nsw i64 %indvars.iv, 1
  %exitcond.not = icmp eq i64 %indvars.iv.next, 3
  br i1 %exitcond.not, label %99, label %78, !llvm.loop !173

99:                                               ; preds = %78
  %100 = load float, ptr %15, align 4
  br label %101

101:                                              ; preds = %99, %101
  %indvars.iv67 = phi i64 [ 0, %99 ], [ %indvars.iv.next68, %101 ]
  %102 = getelementptr inbounds [3 x float], ptr %16, i64 0, i64 %indvars.iv67
  %103 = load float, ptr %102, align 4
  %104 = getelementptr inbounds [4 x float], ptr %4, i64 %42, i64 %indvars.iv67
  %105 = load float, ptr %104, align 4
  %106 = fadd float %103, %105
  store float %106, ptr %104, align 4
  %107 = getelementptr inbounds [3 x float], ptr %17, i64 0, i64 %indvars.iv67
  %108 = load float, ptr %107, align 4
  %109 = getelementptr inbounds [4 x float], ptr %4, i64 %44, i64 %indvars.iv67
  %110 = load float, ptr %109, align 4
  %111 = fadd float %108, %110
  store float %111, ptr %109, align 4
  %112 = getelementptr inbounds [3 x float], ptr %18, i64 0, i64 %indvars.iv67
  %113 = load float, ptr %112, align 4
  %114 = getelementptr inbounds [4 x float], ptr %4, i64 %70, i64 %indvars.iv67
  %115 = load float, ptr %114, align 4
  %116 = fadd float %113, %115
  store float %116, ptr %114, align 4
  %indvars.iv.next68 = add nuw nsw i64 %indvars.iv67, 1
  %exitcond70.not = icmp eq i64 %indvars.iv.next68, 3
  br i1 %exitcond70.not, label %.loopexit, label %101, !llvm.loop !174

._crit_edge:                                      ; preds = %.loopexit, %14
  %.0.lcssa = phi float [ 0.000000e+00, %14 ], [ %29, %.loopexit ]
  ret float %.0.lcssa
}